; Function Attrs: nounwind uwtable
define dso_local i32 @getBaseTypeAndTypmod(i32 noundef %0, ptr noundef writeonly captures(none) %1) local_unnamed_addr #0 {
  %3 = zext i32 %0 to i64
  %4 = tail call ptr @SearchSysCache1(i32 noundef 82, i64 noundef %3) #8
  %.not20 = icmp eq ptr %4, null
  br i1 %.not20, label %._crit_edge, label %.lr.ph.preheader

.lr.ph.preheader:                                 ; preds = %2
  %5 = getelementptr i8, ptr %4, i64 16
  %.val31 = load ptr, ptr %5, align 8
  %6 = getelementptr inbounds nuw i8, ptr %.val31, i64 22
  %7 = load i8, ptr %6, align 2
  %8 = zext i8 %7 to i64
  %9 = getelementptr inbounds nuw i8, ptr %.val31, i64 %8
  %10 = getelementptr inbounds nuw i8, ptr %9, i64 79
  %11 = load i8, ptr %10, align 1
  %.not1332 = icmp eq i8 %11, 100
  br i1 %.not1332, label %.lr.ph33, label %.lr.ph._crit_edge

._crit_edge:                                      ; preds = %.lr.ph33, %2
  %.011.lcssa = phi i32 [ %0, %2 ], [ %24, %.lr.ph33 ]
  %12 = tail call zeroext i1 @errstart_cold(i32 noundef 21, ptr noundef null) #9
  tail call void @llvm.assume(i1 %12)
  %13 = tail call i32 (ptr, ...) @errmsg_internal(ptr noundef nonnull @.str.13, i32 noundef %.011.lcssa) #8
  tail call void @errfinish(ptr noundef nonnull @.str.1, i32 noundef 2577, ptr noundef nonnull @__func__.getBaseTypeAndTypmod) #8
  unreachable

.lr.ph:                                           ; preds = %.lr.ph33
  %14 = getelementptr i8, ptr %28, i64 16
  %.val = load ptr, ptr %14, align 8
  %15 = getelementptr inbounds nuw i8, ptr %.val, i64 22
  %16 = load i8, ptr %15, align 2
  %17 = zext i8 %16 to i64
  %18 = getelementptr inbounds nuw i8, ptr %.val, i64 %17
  %19 = getelementptr inbounds nuw i8, ptr %18, i64 79
  %20 = load i8, ptr %19, align 1
  %.not13 = icmp eq i8 %20, 100
  br i1 %.not13, label %.lr.ph33, label %.lr.ph._crit_edge

.lr.ph33:                                         ; preds = %.lr.ph.preheader, %.lr.ph
  %21 = phi ptr [ %18, %.lr.ph ], [ %9, %.lr.ph.preheader ]
  %22 = phi ptr [ %28, %.lr.ph ], [ %4, %.lr.ph.preheader ]
  %23 = getelementptr inbounds nuw i8, ptr %21, i64 132
  %24 = load i32, ptr %23, align 4
  %25 = getelementptr inbounds nuw i8, ptr %21, i64 136
  %26 = load i32, ptr %25, align 4
  store i32 %26, ptr %1, align 4
  tail call void @ReleaseSysCache(ptr noundef nonnull %22) #8
  %27 = zext i32 %24 to i64
  %28 = tail call ptr @SearchSysCache1(i32 noundef 82, i64 noundef %27) #8
  %.not = icmp eq ptr %28, null
  br i1 %.not, label %._crit_edge, label %.lr.ph

.lr.ph._crit_edge:                                ; preds = %.lr.ph, %.lr.ph.preheader
  %.lcssa = phi ptr [ %4, %.lr.ph.preheader ], [ %28, %.lr.ph ]
  %.01121.lcssa = phi i32 [ %0, %.lr.ph.preheader ], [ %24, %.lr.ph ]
  tail call void @ReleaseSysCache(ptr noundef nonnull %.lcssa) #8
  ret i32 %.01121.lcssa
}